target datalayout = "e-m:e-p270:32:32-p271:32:32-p272:64:64-i64:64-i128:128-f80:128-n8:16:32:64-S128"
target triple = "x86_64-pc-linux-gnu"

%struct.config_generic = type { ptr, i32, i32, ptr, ptr, i32, i32, i32, i32, i32, i32, i32, i32, i32, ptr, ptr, %struct.dlist_node, %struct.slist_node, %struct.slist_node, ptr, ptr, i32 }
%struct.dlist_node = type { ptr, ptr }
%struct.slist_node = type { ptr }

@.str.3 = private unnamed_addr constant [6 x i8] c"guc.c\00", align 1
@.str.59 = private unnamed_addr constant [40 x i8] c"permission denied to set parameter \22%s\22\00", align 1
@__func__.validate_option_array_item = private unnamed_addr constant [27 x i8] c"validate_option_array_item\00", align 1

; Function Attrs: nounwind uwtable
define dso_local i32 @set_config_option(ptr noundef %0, ptr noundef %1, i32 noundef %2, i32 noundef %3, i32 noundef %4, i1 noundef zeroext %5, i32 noundef %6, i1 noundef zeroext %7) #0 {
  %9 = alloca ptr, align 8
  %10 = alloca ptr, align 8
  %11 = alloca i32, align 4
  %12 = alloca i32, align 4
  %13 = alloca i32, align 4
  %14 = alloca i8, align 1
  %15 = alloca i32, align 4
  %16 = alloca i8, align 1
  %17 = alloca i32, align 4
  store ptr %0, ptr %9, align 8
  store ptr %1, ptr %10, align 8
  store i32 %2, ptr %11, align 4
  store i32 %3, ptr %12, align 4
  store i32 %4, ptr %13, align 4
  %18 = zext i1 %5 to i8
  store i8 %18, ptr %14, align 1
  store i32 %6, ptr %15, align 4
  %19 = zext i1 %7 to i8
  store i8 %19, ptr %16, align 1
  call void @llvm.lifetime.start.p0(i64 4, ptr %17) #16
  %20 = load i32, ptr %12, align 4
  %21 = icmp uge i32 %20, 11
  br i1 %21, label %25, label %22

22:                                               ; preds = %8
  %23 = load i32, ptr %12, align 4
  %24 = icmp eq i32 %23, 9
  br i1 %24, label %25, label %27

25:                                               ; preds = %22, %8
  %26 = call i32 @GetUserId()
  store i32 %26, ptr %17, align 4
  br label %28

27:                                               ; preds = %22
  store i32 10, ptr %17, align 4
  br label %28

28:                                               ; preds = %27, %25
  %29 = load ptr, ptr %9, align 8
  %30 = load ptr, ptr %10, align 8
  %31 = load i32, ptr %11, align 4
  %32 = load i32, ptr %12, align 4
  %33 = load i32, ptr %17, align 4
  %34 = load i32, ptr %13, align 4
  %35 = load i8, ptr %14, align 1, !range !4, !noundef !5
  %36 = trunc i8 %35 to i1
  %37 = load i32, ptr %15, align 4
  %38 = load i8, ptr %16, align 1, !range !4, !noundef !5
  %39 = trunc i8 %38 to i1
  %40 = call i32 @set_config_with_handle(ptr noundef %29, ptr noundef null, ptr noundef %30, i32 noundef %31, i32 noundef %32, i32 noundef %33, i32 noundef %34, i1 noundef zeroext %36, i32 noundef %37, i1 noundef zeroext %39)
  call void @llvm.lifetime.end.p0(i64 4, ptr %17) #16
  ret i32 %40
}

; Function Attrs: nounwind uwtable
define internal zeroext i1 @validate_option_array_item(ptr noundef %0, ptr noundef %1, i1 noundef zeroext %2) #0 {
  %4 = alloca i1, align 1
  %5 = alloca ptr, align 8
  %6 = alloca ptr, align 8
  %7 = alloca i8, align 1
  %8 = alloca ptr, align 8
  %9 = alloca i32, align 4
  store ptr %0, ptr %5, align 8
  store ptr %1, ptr %6, align 8
  %10 = zext i1 %2 to i8
  store i8 %10, ptr %7, align 1
  call void @llvm.lifetime.start.p0(i64 8, ptr %8) #16
  %11 = load ptr, ptr %5, align 8
  %12 = load i8, ptr %7, align 1, !range !4, !noundef !5
  %13 = trunc i8 %12 to i1
  %14 = call ptr @find_option(ptr noundef %11, i1 noundef zeroext true, i1 noundef zeroext %13, i32 noundef 21)
  store ptr %14, ptr %8, align 8
  %15 = load ptr, ptr %8, align 8
  %16 = icmp ne ptr %15, null
  br i1 %16, label %18, label %17

17:                                               ; preds = %3
  store i1 false, ptr %4, align 1
  store i32 1, ptr %9, align 4
  br label %80

18:                                               ; preds = %3
  %19 = load ptr, ptr %8, align 8
  %20 = getelementptr inbounds nuw %struct.config_generic, ptr %19, i32 0, i32 5
  %21 = load i32, ptr %20, align 8
  %22 = and i32 %21, 512
  %23 = icmp ne i32 %22, 0
  br i1 %23, label %24, label %49

24:                                               ; preds = %18
  %25 = call zeroext i1 @superuser()
  br i1 %25, label %31, label %26

26:                                               ; preds = %24
  %27 = load ptr, ptr %5, align 8
  %28 = call i32 @GetUserId()
  %29 = call i32 @pg_parameter_aclcheck(ptr noundef %27, i32 noundef %28, i64 noundef 4096)
  %30 = icmp eq i32 %29, 0
  br i1 %30, label %31, label %32

31:                                               ; preds = %26, %24
  store i1 true, ptr %4, align 1
  store i32 1, ptr %9, align 4
  br label %80

32:                                               ; preds = %26
  %33 = load i8, ptr %7, align 1, !range !4, !noundef !5
  %34 = trunc i8 %33 to i1
  br i1 %34, label %35, label %36

35:                                               ; preds = %32
  store i1 false, ptr %4, align 1
  store i32 1, ptr %9, align 4
  br label %80

36:                                               ; preds = %32
  br label %37

37:                                               ; preds = %36
  br i1 true, label %38, label %40

38:                                               ; preds = %37
  %39 = call zeroext i1 @errstart_cold(i32 noundef 21, ptr noundef null) #18
  br i1 %39, label %42, label %46

40:                                               ; preds = %37
  %41 = call zeroext i1 @errstart(i32 noundef 21, ptr noundef null)
  br i1 %41, label %42, label %46

42:                                               ; preds = %40, %38
  %43 = call i32 @errcode(i32 noundef 16797828)
  %44 = load ptr, ptr %5, align 8
  %45 = call i32 (ptr, ...) @errmsg(ptr noundef @.str.59, ptr noundef %44)
  call void @errfinish(ptr noundef @.str.3, i32 noundef 6753, ptr noundef @__func__.validate_option_array_item)
  br label %46

46:                                               ; preds = %42, %40, %38
  unreachable

47:                                               ; No predecessors!
  br label %48

48:                                               ; preds = %47
  br label %49

49:                                               ; preds = %48, %18
  %50 = load ptr, ptr %8, align 8
  %51 = getelementptr inbounds nuw %struct.config_generic, ptr %50, i32 0, i32 1
  %52 = load i32, ptr %51, align 8
  %53 = icmp eq i32 %52, 6
  br i1 %53, label %54, label %55

54:                                               ; preds = %49
  br label %74

55:                                               ; preds = %49
  %56 = load ptr, ptr %8, align 8
  %57 = getelementptr inbounds nuw %struct.config_generic, ptr %56, i32 0, i32 1
  %58 = load i32, ptr %57, align 8
  %59 = icmp eq i32 %58, 5
  br i1 %59, label %60, label %68

60:                                               ; preds = %55
  %61 = call zeroext i1 @superuser()
  br i1 %61, label %67, label %62

62:                                               ; preds = %60
  %63 = load ptr, ptr %5, align 8
  %64 = call i32 @GetUserId()
  %65 = call i32 @pg_parameter_aclcheck(ptr noundef %63, i32 noundef %64, i64 noundef 4096)
  %66 = icmp eq i32 %65, 0
  br i1 %66, label %67, label %68

67:                                               ; preds = %62, %60
  br label %73

68:                                               ; preds = %62, %55
  %69 = load i8, ptr %7, align 1, !range !4, !noundef !5
  %70 = trunc i8 %69 to i1
  br i1 %70, label %71, label %72

71:                                               ; preds = %68
  store i1 false, ptr %4, align 1
  store i32 1, ptr %9, align 4
  br label %80

72:                                               ; preds = %68
  br label %73

73:                                               ; preds = %72, %67
  br label %74

74:                                               ; preds = %73, %54
  %75 = load ptr, ptr %5, align 8
  %76 = load ptr, ptr %6, align 8
  %77 = call zeroext i1 @superuser()
  %78 = select i1 %77, i32 5, i32 6
  %79 = call i32 @set_config_option(ptr noundef %75, ptr noundef %76, i32 noundef %78, i32 noundef 12, i32 noundef 0, i1 noundef zeroext false, i32 noundef 0, i1 noundef zeroext false)
  store i1 true, ptr %4, align 1
  store i32 1, ptr %9, align 4
  br label %80

80:                                               ; preds = %74, %71, %35, %31, %17
  call void @llvm.lifetime.end.p0(i64 8, ptr %8) #16
  %81 = load i1, ptr %4, align 1
  ret i1 %81
}