; Function Attrs: nounwind uwtable
define internal fastcc zeroext i1 @validate_option_array_item(ptr noundef %0, ptr noundef %1, i1 noundef zeroext %2) unnamed_addr #0 {
  %4 = tail call ptr @find_option(ptr noundef %0, i1 noundef zeroext true, i1 noundef zeroext %2, i32 noundef 21)
  %.not = icmp eq ptr %4, null
  br i1 %.not, label %34, label %5

5:                                                ; preds = %3
  %6 = getelementptr inbounds nuw i8, ptr %4, i64 32
  %7 = load i32, ptr %6, align 8
  %8 = and i32 %7, 512
  %.not15 = icmp eq i32 %8, 0
  br i1 %.not15, label %19, label %9

9:                                                ; preds = %5
  %10 = tail call zeroext i1 @superuser() #29
  br i1 %10, label %34, label %11

11:                                               ; preds = %9
  %12 = tail call i32 @GetUserId() #29
  %13 = tail call i32 @pg_parameter_aclcheck(ptr noundef %0, i32 noundef %12, i64 noundef 4096) #29
  %14 = icmp eq i32 %13, 0
  %brmerge17 = or i1 %2, %14
  br i1 %brmerge17, label %34, label %15

15:                                               ; preds = %11
  %16 = tail call zeroext i1 @errstart_cold(i32 noundef 21, ptr noundef null) #31
  tail call void @llvm.assume(i1 %16)
  %17 = tail call i32 @errcode(i32 noundef 16797828) #29
  %18 = tail call i32 (ptr, ...) @errmsg(ptr noundef nonnull @.str.59, ptr noundef %0) #29
  tail call void @errfinish(ptr noundef nonnull @.str.3, i32 noundef 6753, ptr noundef nonnull @__func__.validate_option_array_item) #29
  unreachable

19:                                               ; preds = %5
  %20 = getelementptr inbounds nuw i8, ptr %4, i64 8
  %21 = load i32, ptr %20, align 8
  switch i32 %21, label %28 [
    i32 6, label %29
    i32 5, label %22
  ]

22:                                               ; preds = %19
  %23 = tail call zeroext i1 @superuser() #29
  br i1 %23, label %29, label %24

24:                                               ; preds = %22
  %25 = tail call i32 @GetUserId() #29
  %26 = tail call i32 @pg_parameter_aclcheck(ptr noundef %0, i32 noundef %25, i64 noundef 4096) #29
  %27 = icmp ne i32 %26, 0
  %brmerge.not = and i1 %2, %27
  br i1 %brmerge.not, label %34, label %29

28:                                               ; preds = %19
  br i1 %2, label %34, label %29

29:                                               ; preds = %24, %19, %22, %28
  %30 = tail call zeroext i1 @superuser() #29
  %31 = select i1 %30, i32 5, i32 6
  %32 = tail call i32 @GetUserId() #29
  %33 = tail call range(i32 -1, 2) i32 @set_config_with_handle(ptr noundef %0, ptr noundef null, ptr noundef %1, i32 noundef %31, i32 noundef 12, i32 noundef %32, i32 noundef 0, i1 noundef zeroext false, i32 noundef 0, i1 noundef zeroext false)
  br label %34

34:                                               ; preds = %11, %28, %24, %9, %3, %29
  %.0 = phi i1 [ true, %29 ], [ false, %3 ], [ %14, %11 ], [ true, %9 ], [ false, %24 ], [ false, %28 ]
  ret i1 %.0
}